target datalayout = "e-m:e-p270:32:32-p271:32:32-p272:64:64-i64:64-i128:128-f80:128-n8:16:32:64-S128"
target triple = "x86_64-unknown-linux-gnu"

%struct.QEMUBH = type { ptr, ptr, ptr, ptr, %struct.anon, i32, ptr }
%struct.anon = type { ptr }

; Function Attrs: nounwind sspstrong uwtable
define dso_local ptr @aio_bh_new_full(ptr noundef %ctx, ptr noundef %cb, ptr noundef %opaque, ptr noundef %name, ptr noundef %reentrancy_guard) #0 {
entry:
  %ctx.addr = alloca ptr, align 8
  %cb.addr = alloca ptr, align 8
  %opaque.addr = alloca ptr, align 8
  %name.addr = alloca ptr, align 8
  %reentrancy_guard.addr = alloca ptr, align 8
  %bh = alloca ptr, align 8
  %.compoundliteral = alloca %struct.QEMUBH, align 8
  store ptr %ctx, ptr %ctx.addr, align 8
  store ptr %cb, ptr %cb.addr, align 8
  store ptr %opaque, ptr %opaque.addr, align 8
  store ptr %name, ptr %name.addr, align 8
  store ptr %reentrancy_guard, ptr %reentrancy_guard.addr, align 8
  %call = call noalias ptr @g_malloc_n(i64 noundef 1, i64 noundef 56) #9
  store ptr %call, ptr %bh, align 8
  %0 = load ptr, ptr %bh, align 8
  %ctx1 = getelementptr inbounds %struct.QEMUBH, ptr %.compoundliteral, i32 0, i32 0
  %1 = load ptr, ptr %ctx.addr, align 8
  store ptr %1, ptr %ctx1, align 8
  %name2 = getelementptr inbounds %struct.QEMUBH, ptr %.compoundliteral, i32 0, i32 1
  %2 = load ptr, ptr %name.addr, align 8
  store ptr %2, ptr %name2, align 8
  %cb3 = getelementptr inbounds %struct.QEMUBH, ptr %.compoundliteral, i32 0, i32 2
  %3 = load ptr, ptr %cb.addr, align 8
  store ptr %3, ptr %cb3, align 8
  %opaque4 = getelementptr inbounds %struct.QEMUBH, ptr %.compoundliteral, i32 0, i32 3
  %4 = load ptr, ptr %opaque.addr, align 8
  store ptr %4, ptr %opaque4, align 8
  %next = getelementptr inbounds %struct.QEMUBH, ptr %.compoundliteral, i32 0, i32 4
  call void @llvm.memset.p0.i64(ptr align 8 %next, i8 0, i64 8, i1 false)
  %flags = getelementptr inbounds %struct.QEMUBH, ptr %.compoundliteral, i32 0, i32 5
  store i32 0, ptr %flags, align 8
  %reentrancy_guard5 = getelementptr inbounds %struct.QEMUBH, ptr %.compoundliteral, i32 0, i32 6
  %5 = load ptr, ptr %reentrancy_guard.addr, align 8
  store ptr %5, ptr %reentrancy_guard5, align 8
  call void @llvm.memcpy.p0.p0.i64(ptr align 8 %0, ptr align 8 %.compoundliteral, i64 56, i1 false)
  %6 = load ptr, ptr %bh, align 8
  ret ptr %6
}