; Function Attrs: nounwind sspstrong uwtable
define dso_local noalias noundef ptr @aio_bh_new_full(ptr noundef %ctx, ptr noundef %cb, ptr noundef %opaque, ptr noundef %name, ptr noundef %reentrancy_guard) local_unnamed_addr #0 {
entry:
  %call = tail call noalias dereferenceable_or_null(56) ptr @g_malloc_n(i64 noundef 1, i64 noundef 56) #12
  store ptr %ctx, ptr %call, align 8
  %.compoundliteral.sroa.2.0..sroa_idx = getelementptr inbounds nuw i8, ptr %call, i64 8
  store ptr %name, ptr %.compoundliteral.sroa.2.0..sroa_idx, align 8
  %.compoundliteral.sroa.3.0..sroa_idx = getelementptr inbounds nuw i8, ptr %call, i64 16
  store ptr %cb, ptr %.compoundliteral.sroa.3.0..sroa_idx, align 8
  %.compoundliteral.sroa.4.0..sroa_idx = getelementptr inbounds nuw i8, ptr %call, i64 24
  store ptr %opaque, ptr %.compoundliteral.sroa.4.0..sroa_idx, align 8
  %.compoundliteral.sroa.5.0..sroa_idx = getelementptr inbounds nuw i8, ptr %call, i64 32
  store ptr null, ptr %.compoundliteral.sroa.5.0..sroa_idx, align 8
  %.compoundliteral.sroa.6.0..sroa_idx = getelementptr inbounds nuw i8, ptr %call, i64 40
  store i32 0, ptr %.compoundliteral.sroa.6.0..sroa_idx, align 8
  %.compoundliteral.sroa.71.0..sroa_idx = getelementptr inbounds nuw i8, ptr %call, i64 48
  store ptr %reentrancy_guard, ptr %.compoundliteral.sroa.71.0..sroa_idx, align 8
  ret ptr %call
}